target datalayout = "e-m:e-p270:32:32-p271:32:32-p272:64:64-i64:64-i128:128-f80:128-n8:16:32:64-S128"
target triple = "x86_64-pc-linux-gnu"

%struct.pdcp_result_hash_key = type { i32, i32 }

; Function Attrs: nounwind null_pointer_is_valid sspstrong uwtable
define internal i32 @pdcp_result_hash_func(ptr noundef %0) #5 {
  %2 = alloca ptr, align 8
  %3 = alloca ptr, align 8
  store ptr %0, ptr %2, align 8
  call void @llvm.lifetime.start.p0(i64 8, ptr %3) #15
  %4 = load ptr, ptr %2, align 8
  store ptr %4, ptr %3, align 8
  %5 = load ptr, ptr %3, align 8
  %6 = getelementptr inbounds nuw %struct.pdcp_result_hash_key, ptr %5, i32 0, i32 0
  %7 = load i32, ptr %6, align 4
  %8 = load ptr, ptr %3, align 8
  %9 = getelementptr inbounds nuw %struct.pdcp_result_hash_key, ptr %8, i32 0, i32 1
  %10 = load i32, ptr %9, align 4
  %11 = lshr i32 %10, 20
  %12 = and i32 %11, 31
  %13 = shl i32 %12, 7
  %14 = add i32 %7, %13
  %15 = load ptr, ptr %3, align 8
  %16 = getelementptr inbounds nuw %struct.pdcp_result_hash_key, ptr %15, i32 0, i32 1
  %17 = load i32, ptr %16, align 4
  %18 = lshr i32 %17, 18
  %19 = and i32 %18, 3
  %20 = shl i32 %19, 12
  %21 = add i32 %14, %20
  %22 = load ptr, ptr %3, align 8
  %23 = getelementptr inbounds nuw %struct.pdcp_result_hash_key, ptr %22, i32 0, i32 1
  %24 = load i32, ptr %23, align 4
  %25 = and i32 %24, 262143
  %26 = shl i32 %25, 14
  %27 = add i32 %21, %26
  %28 = load ptr, ptr %3, align 8
  %29 = getelementptr inbounds nuw %struct.pdcp_result_hash_key, ptr %28, i32 0, i32 1
  %30 = load i32, ptr %29, align 4
  %31 = lshr i32 %30, 25
  %32 = and i32 %31, 1
  %33 = shl i32 %32, 6
  %34 = add i32 %27, %33
  call void @llvm.lifetime.end.p0(i64 8, ptr %3) #15
  ret i32 %34
}