; Function Attrs: mustprogress nofree norecurse nosync nounwind null_pointer_is_valid sspstrong willreturn memory(argmem: read) uwtable
define internal i32 @pdcp_result_hash_func(ptr noundef readonly captures(none) %0) #6 {
  %2 = load i32, ptr %0, align 4
  %3 = getelementptr inbounds nuw i8, ptr %0, i64 4
  %4 = load i32, ptr %3, align 4
  %5 = lshr i32 %4, 13
  %6 = and i32 %5, 3968
  %7 = lshr i32 %4, 6
  %8 = and i32 %7, 12288
  %9 = shl i32 %4, 14
  %10 = lshr i32 %4, 19
  %11 = and i32 %10, 64
  %12 = add i32 %9, %2
  %13 = add i32 %12, %6
  %14 = add i32 %13, %8
  %15 = add i32 %14, %11
  ret i32 %15
}